; Function Attrs: mustprogress uwtable
define internal fastcc void @_ZN11flatbuffers12_GLOBAL__N_117MakeBinarySectionERKNSt7__cxx1112basic_stringIcSt11char_traitsIcESaIcEEENS_17BinarySectionTypeESt6vectorINS_12BinaryRegionESaISB_EE(ptr dead_on_unwind noalias nonnull writable align 8 %0, ptr noundef nonnull align 8 dereferenceable(32) %1, i32 noundef %2, ptr noundef nonnull %3) unnamed_addr #3 personality ptr @__gxx_personality_v0 {
  %5 = getelementptr inbounds nuw i8, ptr %0, i64 16
  store ptr %5, ptr %0, align 8, !tbaa !58
  %6 = getelementptr inbounds nuw i8, ptr %0, i64 8
  store i64 0, ptr %6, align 8, !tbaa !59
  store i8 0, ptr %5, align 8, !tbaa !60
  %7 = getelementptr inbounds nuw i8, ptr %0, i64 32
  store i32 0, ptr %7, align 8, !tbaa !100
  %8 = getelementptr inbounds nuw i8, ptr %0, i64 40
  tail call void @llvm.memset.p0.i64(ptr noundef nonnull align 8 dereferenceable(24) %8, i8 0, i64 24, i1 false)
  invoke void @_ZNSt7__cxx1112basic_stringIcSt11char_traitsIcESaIcEE9_M_assignERKS4_(ptr noundef nonnull align 8 dereferenceable(32) %0, ptr noundef nonnull align 8 dereferenceable(32) %1)
          to label %_ZNSt7__cxx1112basic_stringIcSt11char_traitsIcESaIcEEaSERKS4_.exit unwind label %9

_ZNSt7__cxx1112basic_stringIcSt11char_traitsIcESaIcEEaSERKS4_.exit: ; preds = %4
  store i32 %2, ptr %7, align 8, !tbaa !100
  tail call void @_ZNSt6vectorIN11flatbuffers12BinaryRegionESaIS1_EE14_M_move_assignEOS3_St17integral_constantIbLb1EE(ptr noundef nonnull align 8 dereferenceable(24) %8, ptr noundef nonnull align 8 dereferenceable(24) %3) #31
  ret void

9:                                                ; preds = %4
  %10 = landingpad { ptr, i32 }
          cleanup
  tail call void @_ZN11flatbuffers13BinarySectionD2Ev(ptr noundef nonnull align 8 dereferenceable(64) %0) #31
  resume { ptr, i32 } %10
}